(lp0
S'http://escapepod.org/2017/07/23/ep585-we-all-scream/'
p1
aS'http://escapepod.org/2017/07/13/ep584-your-body-by-default/'
p2
aS'http://escapepod.org/2017/07/06/ep583-the-librarian/'
p3
aS'http://escapepod.org/2017/06/30/artemis-rising-4/'
p4
aS'http://escapepod.org/2017/06/29/ep582-unit-two-does-her-makeup/'
p5
aS'http://escapepod.org/2017/06/22/ep581-that-game-we-played-during-the-war/'
p6
aS'http://escapepod.org/2017/06/15/ep580-nozizwe-and-almahdi/'
p7
aS'http://escapepod.org/2017/06/09/ep579-texts-from-the-ghost-war/'
p8
aS'http://escapepod.org/2017/06/01/ep578-cherry-squid/'
p9
aS'http://escapepod.org/2017/05/26/ep577-the-ghosts-of-europa-will-keep-you-trapped-in-a-prison-you-make-for-yourself/'
p10
aS'http://escapepod.org/2017/05/18/ep576-karma-among-the-cloud-kings/'
p11
aS'http://escapepod.org/2017/05/11/ep575-red-kelly-owns-the-moon/'
p12
aS'http://escapepod.org/2017/05/04/ep574-yosemite/'
p13
aS'http://escapepod.org/2017/05/04/editorial-changes-at-the-pod/'
p14
aS'http://escapepod.org/2017/04/27/ep573-whatever-tower-however-high/'
p15
aS'http://escapepod.org/2017/04/21/ep572-nothing-to-see-here/'
p16
aS'http://escapepod.org/2017/04/13/ep571-beetle-cleaned-skulls/'
p17
aS'http://escapepod.org/2017/04/06/ep570-what-good-is-a-glass-warrior/'
p18
aS'http://escapepod.org/2017/03/31/ep569-safe-harbour-artemis-rising-3/'
p19
aS'http://escapepod.org/2017/03/23/ep568-dr-mbalu-and-the-butchers-daughter-artemis-rising-3/'
p20
aS'http://escapepod.org/2017/03/16/ep567-baro-porrajmos-or-love-in-the-vardo-artemis-rising-3/'
p21
aS'http://escapepod.org/2017/03/09/ep566-honey-and-bone-artemis-rising-3/'
p22
aS'http://escapepod.org/2017/03/02/ep565-the-zombee-project-3-0-artemis-rising-3/'
p23
aS'http://escapepod.org/2017/02/24/ep564-trusted-messenger/'
p24
aS'http://escapepod.org/2017/02/17/ep563-two-steps-forward/'
p25
aS'http://escapepod.org/2017/02/09/ep562-meltwater/'
p26
aS'http://escapepod.org/2017/02/02/ep561-the-androids-prehistoric-menagerie/'
p27
aS'http://escapepod.org/2017/01/26/ep560-run/'
p28
aS'http://escapepod.org/2017/01/26/ea-metacast-january-2017/'
p29
aS'http://escapepod.org/2017/01/20/ep559-vegetablemen-in-peanut-town/'
p30
aS'http://escapepod.org/2017/01/12/ep558-holding-the-ghosts/'
p31
aS'http://escapepod.org/2017/01/05/ep557-impossibility-crow/'
p32
aS'http://escapepod.org/2016/12/29/ep556-in-a-manner-of-speaking/'
p33
aS'http://escapepod.org/2016/12/22/ep555-monstrance-of-sky/'
p34
aS'http://escapepod.org/2016/12/17/ep554-captain-drake-learns-his-lines/'
p35
aS'http://escapepod.org/2016/12/08/ep553-water-finds-its-level/'
p36
aS'http://escapepod.org/2016/12/01/ep552-redchip-bluechip/'
p37
aS'http://escapepod.org/2016/11/24/ep551-the-most-absurd-dance-at-the-end-of-the-worlds/'
p38
aS'http://escapepod.org/2016/11/17/ep550-when-they-come-back/'
p39
aS'http://escapepod.org/2016/11/10/ep549-the-battaile-of-the-mudde/'
p40
aS'http://escapepod.org/2016/11/07/book-review-crimson-death-by-laurell-k-hamilton/'
p41
aS'http://escapepod.org/2016/11/03/ep548-a-prayer-at-noon/'
p42
aS'http://escapepod.org/2016/10/27/ep547-ride-the-dragon/'
p43
aS'http://escapepod.org/2016/10/20/ep546-recollection/'
p44
aS'http://escapepod.org/2016/10/13/ep545-murder-or-a-duck/'
p45
aS'http://escapepod.org/2016/10/04/ep544-only-human/'
p46
aS'http://escapepod.org/2016/09/26/ep543-rock-paper-scissors-love-death/'
p47
aS'http://escapepod.org/2016/09/20/ep542-the-hungers-of-refugees/'
p48
aS'http://escapepod.org/2016/09/12/ep541-as-travelers-in-sky-boats/'
p49
aS'http://escapepod.org/2016/09/12/book-review-only-superhuman-by-christopher-l-bennett/'
p50
aS'http://escapepod.org/2016/09/03/ep540-the-right-answer/'
p51
aS'http://escapepod.org/2016/08/29/ep539-squirrels-foxes-and-other-fine-specimens/'
p52
aS'http://escapepod.org/2016/08/25/ep408a-eugie-award-re-post-of-immersion/'
p53
aS'http://escapepod.org/2016/08/23/ep538-the-starsmith/'
p54
aS'http://escapepod.org/2016/08/15/artemis-rising-3/'
p55
aS'http://escapepod.org/2016/08/10/ep537-honeycomb-girls/'
p56
aS'http://escapepod.org/2016/08/03/ep536-prophet-to-the-dogs/'
p57
aS'http://escapepod.org/2016/07/27/ep535-bluejay/'
p58
aS'http://escapepod.org/2016/07/04/movie-review-swiss-army-man/'
p59
aS'http://escapepod.org/2016/07/01/ep534-joolie-irdl/'
p60
aS'http://escapepod.org/2016/06/26/escape-pod-closing-to-submissions/'
p61
aS'http://escapepod.org/2016/06/26/ep533-2016-flash-fiction-contest-winners/'
p62
aS'http://escapepod.org/2016/06/07/5600/'
p63
aS'http://escapepod.org/2016/05/26/ep531-bend-back-the-shadows/'
p64
aS'http://escapepod.org/2016/05/11/ep530-city-in-the-wound/'
p65
aS'http://escapepod.org/2016/05/03/ep529-of-blessed-servitude/'
p66
aS'http://escapepod.org/2016/04/24/ep528-divided-by-zero/'
p67
aS'http://escapepod.org/2016/04/17/ep527-plural/'
p68
aS'http://escapepod.org/2016/04/11/bring-back-the-middle-ground/'
p69
aS'http://escapepod.org/2016/04/04/ep-metacast-0416/'
p70
aS'http://escapepod.org/2016/03/29/ep526-the-hunter-captain/'
p71
aS'http://escapepod.org/2016/03/18/ep525-among-the-living/'
p72
aS'http://escapepod.org/2016/03/14/flash-fiction-contest-2016/'
p73
aS'http://escapepod.org/2016/03/07/ep524-scrapmetal/'
p74
aS'http://escapepod.org/2016/03/01/full-list-of-artemis-rising-2-episodes/'
p75
aS'http://escapepod.org/2016/02/29/ep523-windows/'
p76
aS'http://escapepod.org/2016/02/22/ep522-bioluminescent-memory/'
p77
aS'http://escapepod.org/2016/02/19/ep521-myspace-a-ghost-story/'
p78
aS'http://escapepod.org/2016/02/12/ep520-artemis-rising-singing-to-the-stars/'
p79
aS'http://escapepod.org/2016/02/04/ep519-in-their-image/'
p80
aS'http://escapepod.org/2016/02/01/artemis-rising-2-print-available-now/'
p81
aS'http://escapepod.org/2016/02/01/ep518-brain-worms-and-white-whales/'
p82
aS'http://escapepod.org/2016/01/27/for-your-consideration/'
p83
aS'http://escapepod.org/2016/01/20/ep517-budo/'
p84
aS'http://escapepod.org/2016/01/10/escape-pod-flash-fiction-contest-2016-3/'
p85
aS'http://escapepod.org/2016/01/09/announcement-poddisk-shutting-down/'
p86
aS'http://escapepod.org/2016/01/06/ep516-married/'
p87
aS'http://escapepod.org/2015/12/30/ep515-the-winter-festival/'
p88
aS'http://escapepod.org/2015/12/22/ep514-m-f-ing-retroparty-freestyle/'
p89
aS'http://escapepod.org/2015/12/11/ep513-adaptation-and-predation/'
p90
aS'http://escapepod.org/2015/12/02/ep512-the-semaphore-society/'
p91
aS'http://escapepod.org/2015/11/30/book-review-libertaria-genesis-by-sabrina-pena-young/'
p92
aS'http://escapepod.org/2015/11/19/ep511-the-lone-and-level-sands/'
p93
aS'http://escapepod.org/2015/11/12/ep510-them-ships/'
p94
aS'http://escapepod.org/2015/11/03/ep509-broken/'
p95
aS'http://escapepod.org/2015/11/02/book-review-murder-with-monsters-by-kt-katzmann/'
p96
aS'http://escapepod.org/2015/10/27/special-art-print-for-artemis-rising-2/'
p97
aS'http://escapepod.org/2015/10/26/ep508-a-day-without-sunshine/'
p98
aS'http://escapepod.org/2015/10/22/ep507-the-call-of-the-sky-2/'
p99
aS'http://escapepod.org/2015/10/14/ea-metacast-october-2015-part-2/'
p100
aS'http://escapepod.org/2015/10/14/ea-metacast-october-2015-part-3/'
p101
aS'http://escapepod.org/2015/10/14/ea-metacast-october-2015/'
p102
aS'http://escapepod.org/2015/10/13/ep506-harvester-dreams/'
p103
aS'http://escapepod.org/2015/10/05/book-review-snapshot-by-beau-hall/'
p104
aS'http://escapepod.org/2015/09/30/ep505-falling-leaves/'
p105
aS'http://escapepod.org/2015/09/23/ep504-end-of-the-world-community-college/'
p106
aS'http://escapepod.org/2015/09/14/fan-film-review-star-trek-renegades/'
p107
aS'http://escapepod.org/2015/09/12/ep503-undeleted/'
p108
aS'http://escapepod.org/2015/09/07/book-review-the-shepherds-crown-by-terry-pratchett/'
p109
aS'http://escapepod.org/2015/09/04/ep500-the-man-who-lost-the-sea/'
p110
aS'http://escapepod.org/2015/09/01/artemis-rising-returns/'
p111
aS'http://escapepod.org/2015/08/27/flash-fiction-contest-4-bloodlines/'
p112
aS'http://escapepod.org/2015/08/06/ep502-gorlack-the-destroyers-all-you-can-eat-adventure/'
p113
aS'http://escapepod.org/2015/08/05/film-review-mr-holmes/'
p114
aS'http://escapepod.org/2015/08/01/call-for-submissions-artemis-rising-ii/'
p115
aS'http://escapepod.org/2015/07/28/ep501-imma-gonna-finish-you-off/'
p116
aS'http://escapepod.org/2015/07/20/ep499-sounding-the-fall/'
p117
aS'http://escapepod.org/2015/07/06/ep498-everyone-will-want-one/'
p118
aS'http://escapepod.org/2015/06/27/ep497-a-stretch-of-highway-two-lanes-wide/'
p119
aS'http://escapepod.org/2015/06/21/book-review-dead-ice-by-laurell-k-hamilton/'
p120
aS'http://escapepod.org/2015/06/18/ep496-falling-through-creation/'
p121
aS'http://escapepod.org/2015/06/06/ep495-aficionado/'
p122
aS'http://escapepod.org/2015/06/01/ep494-the-retgun/'
p123
aS'http://escapepod.org/2015/05/20/ep493-beyond-the-trenches-we-lie/'
p124
aS'http://escapepod.org/2015/05/10/ep492-the-silent-ones/'
p125
aS'http://escapepod.org/2015/05/01/ep491-heavens-touch/'
p126
aS'http://escapepod.org/2015/04/20/ep490-flowers-for-algernon/'
p127
aS'http://escapepod.org/2015/04/08/ep489-uncanny/'
p128
aS'http://escapepod.org/2015/04/04/ep488-in-another-life/'
p129
aS'http://escapepod.org/2015/03/28/ep487-new-folks-home/'
p130
aS'http://escapepod.org/2015/03/17/ep486-blight/'
p131
aS'http://escapepod.org/2015/03/16/film-review-cinderella/'
p132
aS'http://escapepod.org/2015/03/10/ep485-supply-limited-act-now/'
p133
aS'http://escapepod.org/2015/03/03/ep484-that-tear-problem/'
p134
aS'http://escapepod.org/2015/03/02/ep483-boriss-bar/'
p135
aS'http://escapepod.org/2015/02/21/ep482-chimeras/'
p136
aS'http://escapepod.org/2015/02/16/ep481-temporary-friends/'
p137
aS'http://escapepod.org/2015/02/07/ep480-knife-cold-stars/'
p138
aS'http://escapepod.org/2015/02/02/ep479-evening-morning-night/'
p139
aS'http://escapepod.org/2015/01/30/ep478-people-shell/'
p140
aS'http://escapepod.org/2015/01/23/ep477-parallel-moons/'
p141
aS'http://escapepod.org/2015/01/16/ep476-loco-parentis/'
p142
aS'http://escapepod.org/2015/01/12/season/'
p143
aS'http://escapepod.org/2015/01/10/ep475-homegrown-tomatoes/'
p144
aS'http://escapepod.org/2014/12/29/ea-metacast-december-2014/'
p145
aS'http://escapepod.org/2014/12/29/ep474-coppeliuss-toyshop/'
p146
aS'http://escapepod.org/2014/12/24/ep473-soft-currency/'
p147
aS'http://escapepod.org/2014/12/19/ep472-mercy-theseus/'
p148
aS'http://escapepod.org/2014/12/05/ep471-shared-faces/'
p149
aS'http://escapepod.org/2014/12/01/attention-escape-pod-closing-submissions-temporarily/'
p150
aS'http://escapepod.org/2014/11/29/ep470-transdimensional-horsemaster-rabbis-mpumalanga-province/'
p151
aS'http://escapepod.org/2014/11/18/ep469-inseparable/'
p152
aS'http://escapepod.org/2014/11/14/ep468-law-gravity/'
p153
aS'http://escapepod.org/2014/11/10/escape-artists-presents-artemis-rising-celebration-women-genre-fiction/'
p154
aS'http://escapepod.org/2014/11/05/ep467-trash/'
p155
aS'http://escapepod.org/2014/10/24/ep466-checkmate/'
p156
aS'http://escapepod.org/2014/10/17/ep465-sky-blue-bright-filled-stars/'
p157
aS'http://escapepod.org/2014/10/10/ep464-red-dust-dancing-horses/'
p158
aS'http://escapepod.org/2014/10/01/ep463-rockwork/'
p159
aS'http://escapepod.org/2014/09/28/author-eugie-foster-passed-away-9272014/'
p160
aS'http://escapepod.org/2014/09/19/ep462-women-occupation/'
p161
aS'http://escapepod.org/2014/09/18/now-hugo-month-results/'
p162
aS'http://escapepod.org/2014/09/12/ep461-selkie-stories-losers/'
p163
aS'http://escapepod.org/2014/09/08/movie-review-kick-ass-2/'
p164
aS'http://escapepod.org/2014/09/02/ep460-ink-readers-doi-saket/'
p165
aS'http://escapepod.org/2014/08/22/tea-bodies-business-remaking-hero-archetype-kameron-hurley/'
p166
aS'http://escapepod.org/2014/08/21/ep459-water-falls-nowhere/'
p167
aS'http://escapepod.org/2014/08/19/special-edition-pg-holyfield/'
p168
aS'http://escapepod.org/2014/08/19/interview-uncanny-editors/'
p169
aS'http://escapepod.org/2014/08/14/ep458-dinosaur-love/'
p170
aS'http://escapepod.org/2014/08/04/ep457/'
p171
aS'http://escapepod.org/2014/07/28/ep456-waste/'
p172
aS'http://escapepod.org/2014/07/21/ep455-keep-shape/'
p173
aS'http://escapepod.org/2014/07/14/ep454-stop-youve-heard-one/'
p174
aS'http://escapepod.org/2014/07/07/ep453-grotto-dancing-deer/'
p175
aS'http://escapepod.org/2014/06/28/ep452-repo/'
p176
aS'http://escapepod.org/2014/06/24/ep451-aliens-made-glass/'
p177
aS'http://escapepod.org/2014/06/16/ep450-valedictorian/'
p178
aS'http://escapepod.org/2014/06/06/ep449-understanding/'
p179
aS'http://escapepod.org/2014/06/02/book-review-please-dont-tell-parents-im-supervillain-richard-roberts/'
p180
aS'http://escapepod.org/2014/05/30/ep448-paprika/'
p181
aS'http://escapepod.org/2014/05/19/ep447-rachel-love/'
p182
aS'http://escapepod.org/2014/05/13/book-review-ghosts-engines-past-sean-mcmullen/'
p183
aS'http://escapepod.org/2014/05/11/ep446-way-needle/'
p184
aS'http://escapepod.org/2014/05/05/film-review-eyes/'
p185
aS'http://escapepod.org/2014/05/04/ep445-black-swan-oracle/'
p186
aS'http://escapepod.org/2014/04/26/ep444-pearls-eyes/'
p187
aS'http://escapepod.org/2014/04/19/ep443-wish-restored/'
p188
aS'http://escapepod.org/2014/04/12/ep442b-eater-bone-part-2/'
p189
aS'http://escapepod.org/2014/04/05/ep442a-eater-bone/'
p190
aS'http://escapepod.org/2014/03/29/ep441-kumara/'
p191
aS'http://escapepod.org/2014/03/22/ep440-canterbury-hollow/'
p192
aS'http://escapepod.org/2014/03/15/ep439/'
p193
aS'http://escapepod.org/2014/03/07/ep438-enjoy-moment/'
p194
aS'http://escapepod.org/2014/02/28/ep437-rose-ecclesiastes/'
p195
aS'http://escapepod.org/2014/02/26/album-review-flossophy/'
p196
aS'http://escapepod.org/2014/02/22/ep436-breach/'
p197
aS'http://escapepod.org/2014/02/14/ep435-made-cats/'
p198
aS'http://escapepod.org/2014/02/12/ep434-coping-mechanisms/'
p199
aS'http://escapepod.org/2014/01/31/ep433-sea/'
p200
aS'http://escapepod.org/2014/01/29/movie-review-upside/'
p201
aS'http://escapepod.org/2014/01/25/ep432-inappropriate-behavior/'
p202
aS'http://escapepod.org/2014/01/22/movie-review-upstream-color/'
p203
aS'http://escapepod.org/2014/01/17/ep431-golden-glass/'
p204
aS'http://escapepod.org/2014/01/15/movie-review-europa-report/'
p205
aS'http://escapepod.org/2014/01/11/ep430-heart-joy/'
p206
aS'http://escapepod.org/2014/01/08/movie-review-apollo-18/'
p207
aS'http://escapepod.org/2014/01/05/ep429-little-black-bag/'
p208
aS'http://escapepod.org/2013/12/27/ep428-paradise-left/'
p209
aS'http://escapepod.org/2013/12/22/ep427-samanthas-diary/'
p210
aS'http://escapepod.org/2013/12/13/ep426-flash-fiction-special/'
p211
aS'http://escapepod.org/2013/12/06/ep425-boy-zaquitos/'
p212
aS'http://escapepod.org/2013/12/01/ep424-biographical-fragments-life-julian-prince/'
p213
aS'http://escapepod.org/2013/11/24/ep423-arena/'
p214
aS'http://escapepod.org/2013/11/15/ep422-deshaun-stevens-ship-log/'
p215
aS'http://escapepod.org/2013/11/10/ep421-bright-moment/'
p216
aS'http://escapepod.org/2013/11/06/ea-metacast-update/'
p217
aS'http://escapepod.org/2013/11/01/ep420-shunned-trailer/'
p218
aS'http://escapepod.org/2013/10/28/ep419-expediter/'
p219
aS'http://escapepod.org/2013/10/26/escape-artists-situation-tldr-version/'
p220
aS'http://escapepod.org/2013/10/24/ea-fundraiser-weird-fiction-night-montreal/'
p221
aS'http://escapepod.org/2013/10/18/ep418-dala-horse/'
p222
aS'http://escapepod.org/2013/10/13/escape-artists-metacast/'
p223
aS'http://escapepod.org/2013/10/11/ep417-southpaw/'
p224
aS'http://escapepod.org/2013/10/06/ep416-big-fisted-circuit/'
p225
aS'http://escapepod.org/2013/09/27/ep415-nightmare-lights-mars/'
p226
aS'http://escapepod.org/2013/09/21/ep414-knowing/'
p227
aS'http://escapepod.org/2013/09/14/ep413-why-i-left-harrys-all-night-hamburgers/'
p228
aS'http://escapepod.org/2013/09/05/ep412-thirty-seconds-from-now/'
p229
aS'http://escapepod.org/2013/08/29/411-loss-with-chalk-diagrams/'
p230
aS'http://escapepod.org/2013/08/23/ep410-nutshell/'
p231
aS'http://escapepod.org/2013/08/19/film-review-chronicle/'
p232
aS'http://escapepod.org/2013/08/16/ep409-mantis-wives/'
p233
aS'http://escapepod.org/2013/08/10/ep408-immersion/'
p234
aS'http://escapepod.org/2013/08/06/ep407-mono-no-aware/'
p235
aS'http://escapepod.org/2013/07/26/ep406-freia-in-the-sunlight/'
p236
aS'http://escapepod.org/2013/07/22/film-review-despicable-me-2/'
p237
aS'http://escapepod.org/2013/07/19/ep405-vestigial-girl/'
p238
aS'http://escapepod.org/2013/07/15/book-review-affliction-by-laurell-k-hamilton/'
p239
aS'http://escapepod.org/2013/07/12/book-review-dodger-by-terry-pratchett/'
p240
aS'http://escapepod.org/2013/07/12/ep404-zebulon-vance-sings-the-alphabet-songs-of-love/'
p241
aS'http://escapepod.org/2013/07/08/book-review-the-ocean-at-the-end-of-the-lane-by-neil-gaiman/'
p242
aS'http://escapepod.org/2013/07/05/film-review-man-of-steel/'
p243
aS'http://escapepod.org/2013/07/05/ep403-saving-alan-idle/'
p244
aS'http://escapepod.org/2013/07/01/film-review-monsters-university/'
p245
aS'http://escapepod.org/2013/06/28/ep402-the-tale-of-the-golden-eagle/'
p246
aS'http://escapepod.org/2013/06/21/ep401-growing-up-human/'
p247
aS'http://escapepod.org/2013/06/18/ep400-rescue-party/'
p248
aS'http://escapepod.org/2013/06/10/book-review-the-phantom-tollbooth-by-norton-juster/'
p249
aS'http://escapepod.org/2013/06/06/ep399-my-heart-is-a-quadratic-equation/'
p250
aS'http://escapepod.org/2013/06/03/fan-film-review-star-trek-continues-episode-1-pilgrim-of-eternity/'
p251
aS'http://escapepod.org/2013/05/30/ep398-subversion/'
p252
aS'http://escapepod.org/2013/05/28/film-review-the-raven/'
p253
aS'http://escapepod.org/2013/05/24/ep397-a-gun-for-dinosaur/'
p254
aS'http://escapepod.org/2013/05/20/film-review-star-trek-into-darkness/'
p255
aS'http://escapepod.org/2013/05/16/ep396-dead-merchandise/'
p256
aS'http://escapepod.org/2013/05/09/ep395-robot/'
p257
aS'http://escapepod.org/2013/05/02/ep394-good-hunting/'
p258
aS'http://escapepod.org/2013/04/29/tv-review-going-postal/'
p259
aS'http://escapepod.org/2013/04/26/ep393-red-card/'
p260
aS'http://escapepod.org/2013/04/22/film-review-the-phantom-tollbooth/'
p261
aS'http://escapepod.org/2013/04/19/ep392-aftermaths/'
p262
aS'http://escapepod.org/2013/04/15/movie-review-safety-not-guaranteed/'
p263
aS'http://escapepod.org/2013/04/11/ep391-making-my-entrance-again-with-my-usual-flair/'
p264
aS'http://escapepod.org/2013/04/08/film-review-the-croods/'
p265
aS'http://escapepod.org/2013/04/04/ep390-cerbo-un-vitra-ujo/'
p266
aS'http://escapepod.org/2013/04/02/tv-review-orphan-black/'
p267
aS'http://escapepod.org/2013/03/28/ep390-keeping-tabs/'
p268
aS'http://escapepod.org/2013/03/21/ep388-trixie-and-the-pandas-of-dread/'
p269
aS'http://escapepod.org/2013/03/14/ep387-perspective/'
p270
aS'http://escapepod.org/2013/03/13/book-review-soon-i-will-be-invincible-by-austin-grossman/'
p271
aS'http://escapepod.org/2013/03/11/film-review-oz-the-great-and-powerful/'
p272
aS'http://escapepod.org/2013/03/07/ep386-finished/'
p273
aS'http://escapepod.org/2013/03/04/book-review-the-mirage-by-matt-ruff/'
p274
aS'http://escapepod.org/2013/02/28/ep385-the-very-pulse-of-the-machine/'
p275
aS'http://escapepod.org/2013/02/21/ep384-the-tamarisk-hunter/'
p276
aS'http://escapepod.org/2013/02/19/book-review-this-book-is-full-of-spiders-seriously-dude-dont-touch-it-by-david-wong/'
p277
aS'http://escapepod.org/2013/02/13/ep383-the-first-book-of-flaccid-swords/'
p278
aS'http://escapepod.org/2013/02/12/book-review-the-graveyard-book-by-neil-gaiman/'
p279
aS'http://escapepod.org/2013/02/06/ep382-they-go-bump/'
p280
aS'http://escapepod.org/2013/02/04/book-review-ready-player-one-by-ernest-cline/'
p281
aS'http://escapepod.org/2013/01/31/ep381-elias-smith-and-jones/'
p282
aS'http://escapepod.org/2013/01/24/ep380-punk-voyager/'
p283
aS'http://escapepod.org/2013/01/22/book-review-john-dies-at-the-end/'
p284
aS'http://escapepod.org/2013/01/17/ep379-concussion/'
p285
aS'http://escapepod.org/2013/01/14/fan-film-review-sonic/'
p286
aS'http://escapepod.org/2013/01/10/ep378-scout/'
p287
aS'http://escapepod.org/2013/01/03/ep377-real-artists/'
p288
aS'http://escapepod.org/2012/12/28/film-review-timer/'
p289
aS'http://escapepod.org/2012/12/27/ep376-shutdown/'
p290
aS'http://escapepod.org/2012/12/20/ep375-marley-and-cratchit/'
p291
aS'http://escapepod.org/2012/12/19/book-review-serpents-storm-by-amber-benson/'
p292
aS'http://escapepod.org/2012/12/18/announcing-the-new-editor-of-escape-pod/'
p293
aS'http://escapepod.org/2012/12/13/ep374-oubliett/'
p294
aS'http://escapepod.org/2012/12/12/book-review-cats-claw-by-amber-benson/'
p295
aS'http://escapepod.org/2012/12/08/ep373-chandras-game/'
p296
aS'http://escapepod.org/2012/11/29/ep372-flash-collection/'
p297
aS'http://escapepod.org/2012/11/23/ep371-a-querulous-flute-of-bone/'
p298
aS'http://escapepod.org/2012/11/15/ep369-the-care-and-feeding-of-mammalian-bipeds-v-2-1/'
p299
aS'http://escapepod.org/2012/11/14/support-clarkesworld/'
p300
aS'http://escapepod.org/2012/11/08/ep369-passengers/'
p301
aS'http://escapepod.org/2012/11/07/flash-contest-winners-announced/'
p302
aS'http://escapepod.org/2012/11/05/book-review-the-tyrant-strategy-revenant-man-by-jonathan-c-gillespie/'
p303
aS'http://escapepod.org/2012/11/01/ep368-springtime-for-deathtraps/'
p304
aS'http://escapepod.org/2012/10/31/25-days-of-tng-day-25-where-do-we-go-from-here/'
p305
aS'http://escapepod.org/2012/10/29/25-days-of-tng-day-24-the-top-25-episodes-part-2/'
p306
aS'http://escapepod.org/2012/10/28/25-days-of-tng-day-23-the-top-25-episodes-part-1/'
p307
aS'http://escapepod.org/2012/10/27/25-days-of-tng-day-22-the-bottom-25-episodes-part-2/'
p308
aS'http://escapepod.org/2012/10/26/submission-guidelines-changes/'
p309
aS'http://escapepod.org/2012/10/26/25-days-of-tng-day-21-the-bottom-25-episodes-part-1/'
p310
aS'http://escapepod.org/2012/10/25/ep367-lion-dance/'
p311
aS'http://escapepod.org/2012/10/24/25-days-of-tng-day-20-11-lost-best-episodes/'
p312
aS'http://escapepod.org/2012/10/22/25-days-of-tng-day-19-the-relaunch/'
p313
aS'http://escapepod.org/2012/10/21/25-days-of-tng-day-18-the-best-and-worst-of-the-tng-films/'
p314
aS'http://escapepod.org/2012/10/19/ep366-som-of-them-closer/'
p315
aS'http://escapepod.org/2012/10/19/25-days-of-tng-day-17-the-best-and-worst-of-season-7/'
p316
aS'http://escapepod.org/2012/10/17/25-days-of-tng-day-16-the-10-best-tie-in-novels/'
p317
aS'http://escapepod.org/2012/10/16/tv-review-dog-with-a-blog/'
p318
aS'http://escapepod.org/2012/10/15/25-days-of-tng-day-15-the-10-worst-tie-in-novels/'
p319
aS'http://escapepod.org/2012/10/14/25-days-of-tng-day-14-the-best-and-worst-of-season-6/'
p320
aS'http://escapepod.org/2012/10/13/25-days-of-tng-day-13-10-things-that-dont-hold-up/'
p321
aS'http://escapepod.org/2012/10/12/25-days-of-tng-day-12-the-best-and-worst-of-season-5/'
p322
aS'http://escapepod.org/2012/10/11/ep365-the-garden-of-earthly-delights/'
p323
aS'http://escapepod.org/2012/10/10/25-days-of-tng-day-11-anachronisms-and-the-stifling-of-creativity/'
p324
aS'http://escapepod.org/2012/10/08/25-days-of-tng-day-10-the-best-and-worst-of-season-4/'
p325
aS'http://escapepod.org/2012/10/07/25-days-of-tng-day-9-in-their-own-words/'
p326
aS'http://escapepod.org/2012/10/06/25-days-of-tng-day-8-the-best-and-worst-of-season-3/'
p327
aS'http://escapepod.org/2012/10/05/25-days-of-tng-day-7-the-10-best-recurring-characters/'
p328
aS'http://escapepod.org/2012/10/04/ep364-techno-rat/'
p329
aS'http://escapepod.org/2012/10/03/25-days-of-tng-day-6-the-best-and-worst-of-season-2/'
p330
aS'http://escapepod.org/2012/10/02/book-review-apollos-outcasts-by-allen-steele/'
p331
aS'http://escapepod.org/2012/10/01/25-days-of-tng-day-5-meet-the-new-ship-not-the-same-as-the-old-ship-part-2/'
p332
aS'http://escapepod.org/2012/09/30/25-days-of-tng-day-4-meet-the-new-ship-not-the-same-as-the-old-ship-part-1/'
p333
aS'http://escapepod.org/2012/09/29/25-days-of-tng-day-3-the-best-and-worst-of-season-1/'
p334
aS'http://escapepod.org/2012/09/28/25-days-of-tng-day-2-episode-review-encounter-at-farpoint/'
p335
aS'http://escapepod.org/2012/09/27/ep363-flowing-shapes/'
p336
aS'http://escapepod.org/2012/09/26/25-days-of-tng-day-1-an-introduction/'
p337
aS'http://escapepod.org/2012/09/21/ep362-contamination/'
p338
aS'http://escapepod.org/2012/09/17/book-review-wrayth-by-philippa-ballantine/'
p339
aS'http://escapepod.org/2012/09/13/ep361-ashes-on-the-water/'
p340
aS'http://escapepod.org/2012/09/10/book-review-the-long-earth-by-terry-pratchett-and-stephen-baxter/'
p341
aS'http://escapepod.org/2012/09/06/ep360-follow-that-cathedral/'
p342
aS'http://escapepod.org/2012/09/04/short-film-review-play-dead/'
p343
aS'http://escapepod.org/2012/09/01/week-hiatus/'
p344
aS'http://escapepod.org/2012/08/29/web-series-review-the-booth-at-the-end/'
p345
aS'http://escapepod.org/2012/08/27/book-review-ink-by-sabrina-vourvoulias/'
p346
aS'http://escapepod.org/2012/08/24/ep359-chasers/'
p347
aS'http://escapepod.org/2012/08/19/worldcon-meetup/'
p348
aS'http://escapepod.org/2012/08/16/ep358-like-a-hawk-in-its-gyre/'
p349
aS'http://escapepod.org/2012/08/09/ep357-connoisseurs-of-the-eccentric/'
p350
aS'http://escapepod.org/2012/08/06/film-review-griff-the-invisible/'
p351
aS'http://escapepod.org/2012/08/03/note-from-the-ethan-ellenberg-literary-agency/'
p352
aS'http://escapepod.org/2012/08/02/ep256-three-quarters-martian/'
p353
aS'http://escapepod.org/2012/08/01/product-placement-the-next-generation/'
p354
aS'http://escapepod.org/2012/07/31/announcing-the-third-flash-contest/'
p355
aS'http://escapepod.org/2012/07/31/film-review-buffy-the-vampire-slayer/'
p356
aS'http://escapepod.org/2012/07/26/ep355-grandmother/'
p357
aS'http://escapepod.org/2012/07/23/alphas-premiers-tonight/'
p358
aS'http://escapepod.org/2012/07/23/web-series-review-harry-potter-and-the-ten-years-later/'
p359
aS'http://escapepod.org/2012/07/20/ep354-the-caretaker/'
p360
aS'http://escapepod.org/2012/07/16/book-review-deaths-daugher-by-amber-benson/'
p361
aS'http://escapepod.org/2012/07/12/ep353-talking-to-the-enmy/'
p362
aS'http://escapepod.org/2012/07/07/soundproof-digest-2/'
p363
aS'http://escapepod.org/2012/07/06/book-review-kiss-the-dead-by-laurell-k-hamilton/'
p364
aS'http://escapepod.org/2012/07/06/ep352-food-for-thought/'
p365
aS'http://escapepod.org/2012/07/02/film-review-ted/'
p366
aS'http://escapepod.org/2012/06/29/book-review-hunter-and-fox-by-philippa-ballantine/'
p367
aS'http://escapepod.org/2012/06/28/ep351-113-feet/'
p368
aS'http://escapepod.org/2012/06/22/ep250-observer-effects/'
p369
aS'http://escapepod.org/2012/06/22/obsessed-with-doing-something-else-anything-else/'
p370
aS'http://escapepod.org/2012/06/18/film-review-another-earth/'
p371
aS'http://escapepod.org/2012/06/15/book-review-railsea-by-china-mieville/'
p372
aS'http://escapepod.org/2012/06/14/ep349-origin/'
p373
aS'http://escapepod.org/2012/06/07/ep348-nemesis/'
p374
aS'http://escapepod.org/2012/05/31/ep347-next-time-scales/'
p375
aS'http://escapepod.org/2012/05/29/smile-time-or-how-i-learned-to-stop-worrying-and-trust-in-whedon/'
p376
aS'http://escapepod.org/2012/05/24/ep346-hawksbill-station/'
p377
aS'http://escapepod.org/2012/05/21/book-review-joss-whedon-the-complete-companion/'
p378
aS'http://escapepod.org/2012/05/17/ep345-the-paper-menagerie/'
p379
aS'http://escapepod.org/2012/05/15/soundproof-digest-1/'
p380
aS'http://escapepod.org/2012/05/15/ep314-movement-hugo-repost/'
p381
aS'http://escapepod.org/2012/05/10/ep344-the-homecoming/'
p382
aS'http://escapepod.org/2012/05/09/how-bad-technobabble-hurt-a-good-episode-our-man-bashir/'
p383
aS'http://escapepod.org/2012/05/03/ep343-the-cartographer-wasps-and-the-anarchist-bees/'
p384
aS'http://escapepod.org/2012/05/02/its-hugo-month/'
p385
aS'http://escapepod.org/2012/04/30/film-review-highlander-endgame/'
p386
aS'http://escapepod.org/2012/04/28/ep342-certus-per-bellum/'
p387
aS'http://escapepod.org/2012/04/23/film-review-highlander-iii-the-sorcerer/'
p388
aS'http://escapepod.org/2012/04/19/ep341-aphrodisia/'
p389
aS'http://escapepod.org/2012/04/12/ep340-golubash-wine-blood-war-story/'
p390
aS'http://escapepod.org/2012/04/05/ep339-run-bakri-says/'
p391
aS'http://escapepod.org/2012/03/30/film-review-the-hunger-games/'
p392
aS'http://escapepod.org/2012/03/29/ep338-the-trojan-girl/'
p393
aS'http://escapepod.org/2012/03/22/ep337-counting-cracks/'
p394
aS'http://escapepod.org/2012/03/22/escape-pod-and-soundproof-update/'
p395
aS'http://escapepod.org/2012/03/21/the-speed-of-sci-fi-revisited/'
p396
aS'http://escapepod.org/2012/03/19/film-review-return-to-oz/'
p397
aS'http://escapepod.org/2012/03/16/portrait-of-a-slayer-at-fifteen-part-3-of-3/'
p398
aS'http://escapepod.org/2012/03/15/ep336-the-speed-of-time/'
p399
aS'http://escapepod.org/2012/03/14/portrait-of-a-slayer-at-fifteen-part-2-of-3/'
p400
aS'http://escapepod.org/2012/03/13/soundtrack-review-once-more-with-feeling/'
p401
aS'http://escapepod.org/2012/03/12/portrait-of-a-slayer-at-fifteen-part-1-of-3/'
p402
aS'http://escapepod.org/2012/03/09/film-review-the-secret-world-of-arrietty/'
p403
aS'http://escapepod.org/2012/03/08/ep335-the-water-man/'
p404
aS'http://escapepod.org/2012/03/01/ep334-the-eckener-alternative/'
p405
aS'http://escapepod.org/2012/02/23/ep333-asteroid-monte/'
p406
aS'http://escapepod.org/2012/02/21/my-problem-with-graphic-novels-part-2-of-2/'
p407
aS'http://escapepod.org/2012/02/20/my-problem-with-graphic-novels-part-1-of-2/'
p408
aS'http://escapepod.org/2012/02/17/ep332-overclocking/'
p409
aS'http://escapepod.org/2012/02/09/ep331-devour/'
p410
aS'http://escapepod.org/2012/02/02/ep330-the-ghost-of-a-girl-who-never-lived/'
p411
aS'http://escapepod.org/2012/02/02/soundproof-16/'
p412
aS'http://escapepod.org/2012/02/01/still-alive-online-sf-for-january/'
p413
aS'http://escapepod.org/2012/01/31/three-dragons-three-tattoos-2-of-2/'
p414
aS'http://escapepod.org/2012/01/30/three-dragons-three-tattoos-1-review-of-the-girl-with-the-dragon-tattoo/'
p415
aS'http://escapepod.org/2012/01/26/ep329-pairs/'
p416
aS'http://escapepod.org/2012/01/25/change-to-submission-guidelines/'
p417
aS'http://escapepod.org/2012/01/23/book-review-out-of-oz-by-gregory-maguire/'
p418
aS'http://escapepod.org/2012/01/19/ep328-surviving-the-ebookalypse/'
p419
aS'http://escapepod.org/2012/01/12/ep327revenants/'
p420
aS'http://escapepod.org/2012/01/06/ep326-flash-fiction-special/'
p421
aS'http://escapepod.org/2012/01/03/closed-to-submissions/'
p422
aS'http://escapepod.org/2012/01/02/soundproof-15/'
p423
aS'http://escapepod.org/2011/12/31/myths-of-origin-by-catherynne-m-valente/'
p424
aS'http://escapepod.org/2011/12/29/ep325-bad-dogs-escape/'
p425
aS'http://escapepod.org/2011/12/22/ep324-long-winters-nap/'
p426
aS'http://escapepod.org/2011/12/20/12-days-of-christmas-stories/'
p427
aS'http://escapepod.org/2011/12/16/science-future-aggrandize-aptitude/'
p428
aS'http://escapepod.org/2011/12/15/ep323-marking-time-on-the-far-side-of-forever/'
p429
aS'http://escapepod.org/2011/12/08/chicken-noodle-gravity/'
p430
aS'http://escapepod.org/2011/12/07/book-review-bigfoot-i-not-dead-by-graham-roumieu/'
p431
aS'http://escapepod.org/2011/12/04/myth-deadly-throwing-knives/'
p432
aS'http://escapepod.org/2011/12/03/book-review-112263-by-stephen-king/'
p433
aS'http://escapepod.org/2011/12/02/ep321-honor-killing/'
p434
aS'http://escapepod.org/2011/12/01/soundproof-14/'
p435
aS'http://escapepod.org/2011/11/24/ep320-thanksgiving-day/'
p436
aS'http://escapepod.org/2011/11/22/podcast-review-astronomy-cast/'
p437
aS'http://escapepod.org/2011/11/21/film-review-in-time/'
p438
aS'http://escapepod.org/2011/11/20/book-review-the-thackery-t-lambshead-cabinet-of-curiosities-edited-by-ann-and-jeff-vandermeer/'
p439
aS'http://escapepod.org/2011/11/19/book-review-the-steerswoman-by-rosemary-kirstein/'
p440
aS'http://escapepod.org/2011/11/18/the-gift-of-choice-unless-youre-a-borg/'
p441
aS'http://escapepod.org/2011/11/17/ep319-driving-x/'
p442
aS'http://escapepod.org/2011/11/10/ep318-the-prize-beyond-gold/'
p443
aS'http://escapepod.org/2011/11/05/book-review-snuff-by-terry-pratchett/'
p444
aS'http://escapepod.org/2011/11/03/ep317-boxed-in/'
p445
aS'http://escapepod.org/2011/11/01/soundproof-13/'
p446
aS'http://escapepod.org/2011/10/27/ep316-site-fourteen/'
p447
aS'http://escapepod.org/2011/10/25/book-review-changing-planes-by-ursula-k-le-guin/'
p448
aS'http://escapepod.org/2011/10/24/science-future-insuring-intelligence/'
p449
aS'http://escapepod.org/2011/10/20/ep-315-clockwork-fagin/'
p450
aS'http://escapepod.org/2011/10/16/book-review-the-colorado-kid-by-stephen-king/'
p451
aS'http://escapepod.org/2011/10/13/ep314/'
p452
aS'http://escapepod.org/2011/10/12/book-review-city-of-ruins-by-kristine-kathryn-rusch/'
p453
aS'http://escapepod.org/2011/10/10/music-and-magic-the-harry-potter-soundtrack-retrospective-part-10-of-10-conclusion/'
p454
aS'http://escapepod.org/2011/10/07/book-review-mechanique-a-tale-of-the-circus-tresault-by-genevieve-valentine/'
p455
aS'http://escapepod.org/2011/10/06/ep313-playing-doctor/'
p456
aS'http://escapepod.org/2011/10/04/book-review-the-cloud-roads-by-martha-wells/'
p457
aS'http://escapepod.org/2011/10/03/music-and-magic-the-harry-potter-soundtrack-retrospective-part-9-of-10-deathly-hallows-2/'
p458
aS'http://escapepod.org/2011/10/02/book-review-h-i-v-e-higher-institute-of-villainous-education-by-mark-walden/'
p459
aS'http://escapepod.org/2011/10/01/soundproof-12/'
p460
aS'http://escapepod.org/2011/09/30/ep312_night_bird_soaring/'
p461
aS'http://escapepod.org/2011/09/26/music-and-magic-the-harry-potter-soundtrack-retrospective-part-8-of-10-deathly-hallows-1/'
p462
aS'http://escapepod.org/2011/09/24/science-future-egregious-energy/'
p463
aS'http://escapepod.org/2011/09/22/ep311-the-faithful-soldier-prompted/'
p464
aS'http://escapepod.org/2011/09/19/music-and-magic-the-harry-potter-soundtrack-retrospective-part-7-of-10-the-half-blood-prince/'
p465
aS'http://escapepod.org/2011/09/15/ep310-flash-extravaganza/'
p466
aS'http://escapepod.org/2011/09/12/music-and-magic-the-harry-potter-soundtrack-retrospective-part-6-of-10-the-order-of-the-phoenix/'
p467
aS'http://escapepod.org/2011/09/08/ep309-the-insurance-agent/'
p468
aS'http://escapepod.org/2011/09/05/music-and-magic-the-harry-potter-soundtrack-retrospective-part-5-of-10-the-goblet-of-fire/'
p469
aS'http://escapepod.org/2011/09/04/book-review-the-magician-king-by-lev-grossman/'
p470
aS'http://escapepod.org/2011/09/02/soundproof-11/'
p471
aS'http://escapepod.org/2011/09/02/book-review-fade-to-black-by-josh-pryor/'
p472
aS'http://escapepod.org/2011/09/01/ep308-kill-me/'
p473
aS'http://escapepod.org/2011/08/30/book-review-river-of-gods-by-ian-mcdonald/'
p474
aS'http://escapepod.org/2011/08/29/music-and-magic-the-harry-potter-soundtrack-retrospective-%e2%80%94-part-4-of-10-the-prisoner-of-azkaban/'
p475
aS'http://escapepod.org/2011/08/27/book-review-low-town-by-daniel-polansky/'
p476
aS'http://escapepod.org/2011/08/26/ep307-soulmates/'
p477
aS'http://escapepod.org/2011/08/22/music-and-magic-the-harry-potter-soundtrack-retrospective-part-3-of-10-the-chamber-of-secrets/'
p478
aS'http://escapepod.org/2011/08/21/the-2011-hugo-winners/'
p479
aS'http://escapepod.org/2011/08/19/ep306-radio-nowhere/'
p480
aS'http://escapepod.org/2011/08/16/science-future-alternate-actual/'
p481
aS'http://escapepod.org/2011/08/15/music-and-magic-the-harry-potter-soundtrack-retrospective-part-2-of-10-the-sorcerers-stone/'
p482
aS'http://escapepod.org/2011/08/11/ep305-midnight-blue/'
p483
aS'http://escapepod.org/2011/08/08/music-and-magic-the-harry-potter-soundtrack-retrospective-part-1-of-10-introduction/'
p484
aS'http://escapepod.org/2011/08/05/book-review-spectyr-by-philippa-ballantine/'
p485
aS'http://escapepod.org/2011/08/04/ep304-union-dues-%e2%80%93-sidekicks-in-stockholm/'
p486
aS'http://escapepod.org/2011/08/03/soundproof-10/'
p487
aS'http://escapepod.org/2011/07/30/bomb_fire_caves/'
p488
aS'http://escapepod.org/2011/07/28/ep303-leech-run/'
p489
aS'http://escapepod.org/2011/07/21/ep302-flash-extravaganza/'
p490
aS'http://escapepod.org/2011/07/20/book-review-osama-by-lavie-tidhar/'
p491
aS'http://escapepod.org/2011/07/19/science-future-harking-hugos/'
p492
aS'http://escapepod.org/2011/07/18/one-more-hugo-post-ponies/'
p493
aS'http://escapepod.org/2011/07/17/update-on-the-alphabet-quartet/'
p494
aS'http://escapepod.org/2011/07/14/ep301-stone-wall-truth/'
p495
aS'http://escapepod.org/2011/07/07/ep300-we-go-back/'
p496
aS'http://escapepod.org/2011/07/05/book-review-pirates-by-nobilis-reed/'
p497
aS'http://escapepod.org/2011/07/02/soundproof-9/'
p498
aS'http://escapepod.org/2011/07/01/book-review-%e2%80%9cgeist%e2%80%9d-by-philippa-ballantine/'
p499
aS'http://escapepod.org/2011/06/30/plus_or_minus/'
p500
aS'http://escapepod.org/2011/06/29/ep296-for-want-of-a-nail/'
p501
aS'http://escapepod.org/2011/06/28/book-review-hit-list-by-laurell-k-hamilton/'
p502
aS'http://escapepod.org/2011/06/25/deathless-by-catherynne-m-valente/'
p503
aS'http://escapepod.org/2011/06/23/ep298-the-things/'
p504
aS'http://escapepod.org/2011/06/22/science-future-maintaining-memory/'
p505
aS'http://escapepod.org/2011/06/20/science-future-seaching-space/'
p506
aS'http://escapepod.org/2011/06/16/ep297-amaryllis/'
p507
aS'http://escapepod.org/2011/06/14/book-review-embassytown-by-china-mieville/'
p508
aS'http://escapepod.org/2011/06/11/science-future-portable-power/'
p509
aS'http://escapepod.org/2011/06/08/book-review-the-hundred-thousand-kingdoms-by-n-k-jemisin/'
p510
aS'http://escapepod.org/2011/06/07/book-review-scouts-by-nobilis-reed/'
p511
aS'http://escapepod.org/2011/06/06/science-future/'
p512
aS'http://escapepod.org/2011/06/02/ep295-disarm/'
p513
aS'http://escapepod.org/2011/06/01/the-soundproof-escape-pod-8/'
p514
aS'http://escapepod.org/2011/06/01/promo-for-the-alphabet-quartet/'
p515
aS'http://escapepod.org/2011/05/30/closing-for-submissions-until-august/'
p516
aS'http://escapepod.org/2011/05/26/ep294-the-night-train/'
p517
aS'http://escapepod.org/2011/05/22/congratulations-to-the-nebula-awards-winners/'
p518
aS'http://escapepod.org/2011/05/21/jeff-vandermeer-covers-finnish-sf-in-two-part-series/'
p519
aS'http://escapepod.org/2011/05/20/book-review-blind-mans-bluff-by-peter-david/'
p520
aS'http://escapepod.org/2011/05/19/ep293-a-small-matter-really/'
p521
aS'http://escapepod.org/2011/05/12/ep292-in-the-water/'
p522
aS'http://escapepod.org/2011/05/09/brave-new-worlds-edited-by-john-joseph-adams/'
p523
aS'http://escapepod.org/2011/05/06/book-review-ship-breaker-by-paolo-bacigalupi/'
p524
aS'http://escapepod.org/2011/05/05/ep291-shannons-law/'
p525
aS'http://escapepod.org/2011/05/02/the-soundproof-escape-pod-7/'
p526
aS'http://escapepod.org/2011/04/28/ep290-tom-the-universe/'
p527
aS'http://escapepod.org/2011/04/27/escape-pod-special-episode-the-arthur-c-clarke-award-winner/'
p528
aS'http://escapepod.org/2011/04/26/speculative-fiction-and-engagement-marketing/'
p529
aS'http://escapepod.org/2011/04/22/ep289-flash-contest-honorable-mentions/'
p530
aS'http://escapepod.org/2011/04/22/book-review-nascence-by-tobias-s-buckell/'
p531
aS'http://escapepod.org/2011/04/21/book-review-seize-the-fire-by-michael-a-martin/'
p532
aS'http://escapepod.org/2011/04/15/spring-reading/'
p533
aS'http://escapepod.org/2011/04/14/ep288-future-perfect/'
p534
aS'http://escapepod.org/2011/04/08/gods-war-by-kameron-hurley/'
p535
aS'http://escapepod.org/2011/04/07/ep287-a-taste-of-time/'
p536
aS'http://escapepod.org/2011/04/06/downtime/'
p537
aS'http://escapepod.org/2011/04/01/the-soundproof-escape-pod-6/'
p538
aS'http://escapepod.org/2011/03/31/ep284-the-76-goldwater-dime/'
p539
aS'http://escapepod.org/2011/03/31/genre-for-japan/'
p540
aS'http://escapepod.org/2011/03/30/book-review-soft-apocalypse-by-will-mcintosh/'
p541
aS'http://escapepod.org/2011/03/25/book-review-dancing-with-bears-by-michael-swanwick/'
p542
aS'http://escapepod.org/2011/03/24/best-news-ever/'
p543
aS'http://escapepod.org/2011/03/24/jaidens_weaver/'
p544
aS'http://escapepod.org/2011/03/22/escape-pod-nominated-for-sfx-blog-awards/'
p545
aS'http://escapepod.org/2011/03/21/the-great-escape-pod-lovecraft-readalong/'
p546
aS'http://escapepod.org/2011/03/18/book-review-agatha-h-and-the-airship-city-by-phil-and-kaja-foglio/'
p547
aS'http://escapepod.org/2011/03/17/ep284-conspiracy/'
p548
aS'http://escapepod.org/2011/03/12/it-cant-beam-me-up-yet/'
p549
aS'http://escapepod.org/2011/03/11/review-i-am-not-a-serial-killer-by-dan-wells/'
p550
aS'http://escapepod.org/2011/03/10/ep283/'
p551
aS'http://escapepod.org/2011/03/08/2011-award-season-the-british-contingent/'
p552
aS'http://escapepod.org/2011/03/03/ep282-youre-almost-here/'
p553
aS'http://escapepod.org/2011/03/03/book-review-paths-of-disharmony-by-dayton-ward/'
p554
aS'http://escapepod.org/2011/03/03/the-soundproof-escape-pod-5/'
p555
aS'http://escapepod.org/2011/02/25/book-review-rough-beasts-of-empire-by-david-r-george-iii/'
p556
aS'http://escapepod.org/2011/02/24/ep281/'
p557
aS'http://escapepod.org/2011/02/22/2010-nebula-nominees/'
p558
aS'http://escapepod.org/2011/02/18/endosymbiont/'
p559
aS'http://escapepod.org/2011/02/17/loves-labours-won-2/'
p560
aS'http://escapepod.org/2011/02/12/snow-day-reading/'
p561
aS'http://escapepod.org/2011/02/11/ep279-conditional-love/'
p562
aS'http://escapepod.org/2011/02/11/book-review-zero-sum-game/'
p563
aS'http://escapepod.org/2011/02/04/book-review-kraken-by-china-mieville/'
p564
aS'http://escapepod.org/2011/02/03/ep278-written-on-the-wind/'
p565
aS'http://escapepod.org/2011/02/02/the-soundproof-escape-pod-4/'
p566
aS'http://escapepod.org/2011/02/02/book-review-the-dervish-house-by-ian-mcdonald/'
p567
aS'http://escapepod.org/2011/01/30/book-review-super-sad-true-love-story-by-gary-shteyngart/'
p568
aS'http://escapepod.org/2011/01/29/hugo-past-present-and-yet-to-come/'
p569
aS'http://escapepod.org/2011/01/28/no-ordinary-defense-of-genre-television/'
p570
aS'http://escapepod.org/2011/01/27/ep277/'
p571
aS'http://escapepod.org/2011/01/22/superheroes-ii-metropolis-we-have-a-problem/'
p572
aS'http://escapepod.org/2011/01/21/film-review-tangled/'
p573
aS'http://escapepod.org/2011/01/20/ep276-on-a-blade-of-grass/'
p574
aS'http://escapepod.org/2011/01/19/the-speculative-literature-foundation-2011-older-writers-grant/'
p575
aS'http://escapepod.org/2011/01/18/film-review-ponyo/'
p576
aS'http://escapepod.org/2011/01/17/we-live-in-the-future/'
p577
aS'http://escapepod.org/2011/01/16/review-monster-hunter-international-by-larry-correia/'
p578
aS'http://escapepod.org/2011/01/13/ep275-schrodingers-cat-lady/'
p579
aS'http://escapepod.org/2011/01/11/closed-to-flash-submissions/'
p580
aS'http://escapepod.org/2011/01/06/ep274-angry-roses-lament/'
p581
aS'http://escapepod.org/2011/01/01/the-soundproof-escape-pod-3/'
p582
aS'http://escapepod.org/2010/12/30/ep273-deaths-end-to-middleton/'
p583
aS'http://escapepod.org/2010/12/23/ep272-christmas-wedding/'
p584
aS'http://escapepod.org/2010/12/22/review-for-the-win-by-cory-doctorow/'
p585
aS'http://escapepod.org/2010/12/21/sauropod-dinosaurs-had-weird-feet/'
p586
aS'http://escapepod.org/2010/12/20/review-souls-in-the-great-machine-by-sean-mcmullen/'
p587
aS'http://escapepod.org/2010/12/19/online-science-fiction-whip-round-from-november/'
p588
aS'http://escapepod.org/2010/12/18/review-the-habitation-of-the-blessed-by-catherynne-valente/'
p589
aS'http://escapepod.org/2010/12/17/the-speed-of-sci-fi/'
p590
aS'http://escapepod.org/2010/12/16/ep271-the-god-of-the-lower-level/'
p591
aS'http://escapepod.org/2010/12/13/superhero-fiction-the-next-big-thing/'
p592
aS'http://escapepod.org/2010/12/09/ep270-advertising-at-the-end-of-the-world/'
p593
aS'http://escapepod.org/2010/12/07/announcements-from-pyr-angry-robot-and-cory-doctorow/'
p594
aS'http://escapepod.org/2010/12/05/major-tom-was-a-fungi-by-trevor-henderson/'
p595
aS'http://escapepod.org/2010/12/04/super-mario-brothers-and-other-genre-games-the-next-generation/'
p596
aS'http://escapepod.org/2010/12/03/vincent-di-fate-in-omni-1982/'
p597
aS'http://escapepod.org/2010/12/02/ep269-elan-vital/'
p598
aS'http://escapepod.org/2010/12/01/the-soundproof-escape-pod-2/'
p599
aS'http://escapepod.org/2010/11/25/advection/'
p600
aS'http://escapepod.org/2010/11/23/apocalypse-now/'
p601
aS'http://escapepod.org/2010/11/19/the-perils-of-timely-fiction/'
p602
aS'http://escapepod.org/2010/11/18/closed-to-submissions-for-december/'
p603
aS'http://escapepod.org/2010/11/18/planetfall/'
p604
aS'http://escapepod.org/2010/11/16/review-shades-of-milk-and-honey-by-mary-robinette-kowal/'
p605
aS'http://escapepod.org/2010/11/14/the-story-is-king/'
p606
aS'http://escapepod.org/2010/11/11/ep-265-kachikachi-yama/'
p607
aS'http://escapepod.org/2010/11/11/book-review-rosemary-and-rue-by-seanan-mcguire/'
p608
aS'http://escapepod.org/2010/11/10/weird-science-15-cover-art-by-wally-wood/'
p609
aS'http://escapepod.org/2010/11/09/book-review-zero-history-by-william-gibson/'
p610
aS'http://escapepod.org/2010/11/08/the-soundproof-escape-pod/'
p611
aS'http://escapepod.org/2010/11/08/book-review-a-princess-of-mars-by-edgar-rice-burroughs/'
p612
aS'http://escapepod.org/2010/11/07/what-were-reading-gregor-the-overlander/'
p613
aS'http://escapepod.org/2010/11/06/october-fiction-roundup/'
p614
aS'http://escapepod.org/2010/11/05/nanowrimo-for-thee-but-not-for-me/'
p615
aS'http://escapepod.org/2010/11/04/from-the-darkest-corners-the-voices-can-be-heard/'
p616
aS'http://escapepod.org/2010/11/04/ep-265-we-are-ted-tuscadero-for-president/'
p617
aS'http://escapepod.org/2010/11/03/halloween-redux-some-just-arent-that-into-it/'
p618
aS'http://escapepod.org/2010/10/28/ep264-st-darwins-spirituals/'
p619
aS'http://escapepod.org/2010/10/23/book-review-white-tiger-by-kylie-chan/'
p620
aS'http://escapepod.org/2010/10/22/book-review-i-shall-wear-midnight-by-terry-pratchett/'
p621
aS'http://escapepod.org/2010/10/22/customized-escape-pod/'
p622
aS'http://escapepod.org/2010/10/21/ep263-fuel/'
p623
aS'http://escapepod.org/2010/10/18/comic-review-superior/'
p624
aS'http://escapepod.org/2010/10/18/just-the-doctor-thanks/'
p625
aS'http://escapepod.org/2010/10/14/i-want-science-fiction-magnets/'
p626
aS'http://escapepod.org/2010/10/14/ep262-cruciger/'
p627
aS'http://escapepod.org/2010/10/12/the-sunburst-award-needs-your-help/'
p628
aS'http://escapepod.org/2010/10/11/what-were-reading-white-tiger-by-kylie-chan/'
p629
aS'http://escapepod.org/2010/10/10/happy-42-day/'
p630
aS'http://escapepod.org/2010/10/07/ep261-only-springtime-when-shes-gone/'
p631
aS'http://escapepod.org/2010/10/04/news-changes-at-escape-pod-blog-reviews-text-and-rate-increase/'
p632
aS'http://escapepod.org/2010/10/04/i-hear-you-folks-like-free-fiction/'
p633
aS'http://escapepod.org/2010/09/30/ep260-the-speed-of-dreams/'
p634
aS'http://escapepod.org/2010/09/23/ep259-the-lady-or-the-tiger/'
p635
aS'http://escapepod.org/2010/09/16/ep258-raising-jenny/'
p636
aS'http://escapepod.org/2010/09/09/ep257-union-dues-the-sum-of-its-parts/'
p637
aS'http://escapepod.org/2010/09/02/ep256-the-mermaids-singing-each-to-each/'
p638
aS'http://escapepod.org/2010/08/26/ep255-variations-on-a-theme/'
p639
aS'http://escapepod.org/2010/08/19/ep254-a-talent-for-vanessa/'
p640
aS'http://escapepod.org/2010/08/12/ep253-eugene/'
p641
aS'http://escapepod.org/2010/08/05/ep252-billion-dollar-view/'
p642
aS'http://escapepod.org/2010/07/29/ep251-unexpected-outcomes/'
p643
aS'http://escapepod.org/2010/07/22/ep250-eros-philia-agape/'
p644
aS'http://escapepod.org/2010/07/17/redesign/'
p645
aS'http://escapepod.org/2010/07/15/ep249-little-mtch-girl/'
p646
aS'http://escapepod.org/2010/07/08/ep248-spar/'
p647
aS'http://escapepod.org/2010/07/01/ep247-bridesicle/'
p648
aS'http://escapepod.org/2010/06/24/ep246-bride-of-frankenstein/'
p649
aS'http://escapepod.org/2010/06/23/ep-special-solitary-as-an-oyster-re-record/'
p650
aS'http://escapepod.org/2010/06/17/ep245-the-moment/'
p651
aS'http://escapepod.org/2010/06/10/ep244-non-zero-probabilities/'
p652
aS'http://escapepod.org/2010/06/01/ep243-im-alive-i-love-you-ill-see-you-in-reno/'
p653
aS'http://escapepod.org/2010/05/27/ep242-the-love-quest-of-smidgen-the-snack-cake/'
p654
aS'http://escapepod.org/2010/05/20/ep241-thargus-and-brian/'
p655
aS'http://escapepod.org/2010/05/12/ep240-the-last-mcdougals/'
p656
aS'http://escapepod.org/2010/05/07/mur-on-becoming-escape-pods-editor/'
p657
aS'http://escapepod.org/2010/05/06/ep-metacast-5/'
p658
aS'http://escapepod.org/2010/04/26/the-state-of-escape-pod-and-a-message-from-steve/'
p659
aS'http://escapepod.org/2010/02/28/ep239-a-programmatic-approach-to-perfect-happiness/'
p660
aS'http://escapepod.org/2010/02/13/ep238-wind-from-a-dying-star/'
p661
aS'http://escapepod.org/2010/02/07/ep237-roadside-rescue/'
p662
aS'http://escapepod.org/2010/02/01/ep236-still-on-the-road/'
p663
aS'http://escapepod.org/2010/01/23/ep235-on-the-human-plan/'
p664
aS'http://escapepod.org/2010/01/18/ep234-the-secret-protocols-of-the-elders-of-zion/'
p665
aS'http://escapepod.org/2010/01/08/ep233-union-dues-the-threnody-of-johnny-toruko/'
p666
aS'http://escapepod.org/2009/12/31/ep232-flash-special/'
p667
aS'http://escapepod.org/2009/12/25/ep231-solitary-as-an-oyster/'
p668
aS'http://escapepod.org/2009/12/24/ep230-candy-art/'
p669
aS'http://escapepod.org/2009/12/18/ep229-littleblossom-makes-a-deal-with-the-devil/'
p670
aS'http://escapepod.org/2009/12/10/ep228-everything-that-matters/'
p671
aS'http://escapepod.org/2009/12/03/ep227-his-masters-voice/'
p672
aS'http://escapepod.org/2009/11/26/ep226-pirate-solutions/'
p673
aS'http://escapepod.org/2009/11/19/ep225-a-hard-rain-at-the-fortean-cafe/'
p674
aS'http://escapepod.org/2009/11/12/ep224-the-ghost-in-the-death-trap/'
p675
aS'http://escapepod.org/2009/11/07/t-shirts-now-available/'
p676
aS'http://escapepod.org/2009/11/05/ep223-the-uncanny-valley/'
p677
aS'http://escapepod.org/2009/10/29/ep222-infestation/'
p678
aS'http://escapepod.org/2009/10/22/ep220-little-ambushes/'
p679
aS'http://escapepod.org/2009/10/15/ep220-come-all-ye-faithful/'
p680
aS'http://escapepod.org/2009/10/08/ep219-sleepy-joe/'
p681
aS'http://escapepod.org/2009/10/01/ep218-ode-to-katan-amano/'
p682
aS'http://escapepod.org/2009/09/24/ep217-the-kindness-of-strangers/'
p683
aS'http://escapepod.org/2009/09/17/ep216-%ce%b2oyfriend/'
p684
aS'http://escapepod.org/2009/09/10/ep215-mr-penumbras-twenty-four-hour-book-store/'
p685
aS'http://escapepod.org/2009/09/04/dragoncon-meetup/'
p686
aS'http://escapepod.org/2009/09/03/ep214/'
p687
aS'http://escapepod.org/2009/08/27/ep213-a-monkey-will-never-get-rid-of-its-black-hands/'
p688
aS'http://escapepod.org/2009/08/22/ea-metacast-aug-2009/'
p689
aS'http://escapepod.org/2009/08/20/ep212-skinhorse-goes-to-mars/'
p690
aS'http://escapepod.org/2009/08/13/ep211-carthago-delenda-est/'
p691
aS'http://escapepod.org/2009/08/06/ep210-the-hastillan-weed/'
p692
aS'http://escapepod.org/2009/07/30/ep209-on-the-eyeball-floor/'
p693
aS'http://escapepod.org/2009/07/23/ep208-an-almanac-for-the-alien-invaders/'
p694
aS'http://escapepod.org/2009/07/19/ep207-wonder-maul-doll/'
p695
aS'http://escapepod.org/2009/07/11/ep206-rogue-farm/'
p696
aS'http://escapepod.org/2009/06/28/worlds-of-tomorrow-eternal-sunshine-of-the-spotless-mind/'
p697
aS'http://escapepod.org/2009/06/25/ep-205-requiem-in-d-minor-for-prions-whale-and-burning-bush/'
p698
aS'http://escapepod.org/2009/06/18/ep-204-the-fifth-zhi/'
p699
aS'http://escapepod.org/2009/06/15/escape-pod-flash-tired/'
p700
aS'http://escapepod.org/2009/06/11/ep-203-the-legend-of-st-ignatz/'
p701
aS'http://escapepod.org/2009/06/09/endorsement-personal-effects-dark-art/'
p702
aS'http://escapepod.org/2009/06/08/escape-pod-flash-one-trick-dog/'
p703
aS'http://escapepod.org/2009/06/05/episode-202-will-you-be-an-astronaut/'
p704
aS'http://escapepod.org/2009/06/01/escape-pod-flash-patent-infringement/'
p705
aS'http://escapepod.org/2009/05/29/episode-201-harry-the-crow/'
p706
aS'http://escapepod.org/2009/05/25/escape-pod-flash-taco/'
p707
aS'http://escapepod.org/2009/05/24/worlds-of-tomorrow-armageddon/'
p708
aS'http://escapepod.org/2009/05/21/slight-delay-on-ep200/'
p709
aS'http://escapepod.org/2009/05/19/escape-pod-flash-betting-the-family-farm/'
p710
aS'http://escapepod.org/2009/05/18/escape-pod-flash-off-base/'
p711
aS'http://escapepod.org/2009/05/14/episode-199-elvis-in-the-attic/'
p712
aS'http://escapepod.org/2009/05/07/episode-198-n-words/'
p713
aS'http://escapepod.org/2009/05/06/escape-pod-flash-get-me-to-the-job-on-time/'
p714
aS'http://escapepod.org/2009/05/03/worlds-of-tomorrow-2010/'
p715
aS'http://escapepod.org/2009/04/30/episode-197-from-babels-falln-glory-we-fled/'
p716
aS'http://escapepod.org/2009/04/27/escape-pod-flash-semi-autonamous-or-for-whom-the-warranty-tolls/'
p717
aS'http://escapepod.org/2009/04/23/ep196-evil-robot-monkey/'
p718
aS'http://escapepod.org/2009/04/20/escape-pod-flash-chump-change/'
p719
aS'http://escapepod.org/2009/04/18/ep195-26-monkeys-also-the-abyss/'
p720
aS'http://escapepod.org/2009/04/14/escape-pod-flash-the-sincerest-form/'
p721
aS'http://escapepod.org/2009/04/10/ep194-exhalation/'
p722
aS'http://escapepod.org/2009/04/06/escape-pod-flash-grandpa/'
p723
aS'http://escapepod.org/2009/04/02/ep193-article-of-faith/'
p724
aS'http://escapepod.org/2009/03/31/a-preference-for-silence/'
p725
aS'http://escapepod.org/2009/03/28/ep192-sumo21/'
p726
aS'http://escapepod.org/2009/03/23/escape-pod-flash-beachcomber/'
p727
aS'http://escapepod.org/2009/03/19/ep191-this-is-how-it-feels/'
p728
aS'http://escapepod.org/2009/03/16/escape-pod-flash-it-was-death-by-a-bullet-but-i-was-killed-by-a-woman/'
p729
aS'http://escapepod.org/2009/03/12/ep190-origin-story/'
p730
aS'http://escapepod.org/2009/03/09/escape-pod-flash-my-angel-gabriel/'
p731
aS'http://escapepod.org/2009/03/04/ep189-the-botox-school-of-acting/'
p732
aS'http://escapepod.org/2009/02/27/ep188-29-union-leaders-cant-be-wrong/'
p733
aS'http://escapepod.org/2009/02/07/ep187-summer-in-paris-light-from-the-sky/'
p734
aS'http://escapepod.org/2009/01/09/ep186-chrysalis/'
p735
aS'http://escapepod.org/2009/01/02/ep185-union-dues-all-about-the-sponsors/'
p736
aS'http://escapepod.org/2008/12/29/escape-pod-flash-standards/'
p737
aS'http://escapepod.org/2008/12/25/ep184-as-dry-leaves-that-before-the-wild-hurricane-fly/'
p738
aS'http://escapepod.org/2008/12/06/escape-pod-flash-fiction-contest-honorable-mention-silence/'
p739
aS'http://escapepod.org/2008/12/05/escape-pod-flash-fiction-contest-honorable-mention-hello-i-love-you/'
p740
aS'http://escapepod.org/2008/12/04/escape-pod-flash-fiction-contest-honorable-mention-the-way-before/'
p741
aS'http://escapepod.org/2008/12/02/escape-pod-flash-fiction-contest-honorable-mention-hoarding-colored-rags/'
p742
aS'http://escapepod.org/2008/12/01/escape-pod-flash-fiction-contest-honorable-mention-from-liquid-to-glass/'
p743
aS'http://escapepod.org/2008/11/29/escape-pod-flash-fiction-contest-third-place-karakuri/'
p744
aS'http://escapepod.org/2008/11/28/escape-pod-flash-fiction-contest-second-place-skyscrapers/'
p745
aS'http://escapepod.org/2008/11/26/escape-pod-flash-fiction-contest-winner-mission-to-dover/'
p746
aS'http://escapepod.org/2008/11/24/ep-metacast-4/'
p747
aS'http://escapepod.org/2008/11/13/on-hiatus/'
p748
aS'http://escapepod.org/2008/11/09/ep183-beans-and-marbles/'
p749
aS'http://escapepod.org/2008/11/01/ep182-the-story-of-the-late-mr-elvesham/'
p750
aS'http://escapepod.org/2008/10/25/ep181-resistance/'
p751
aS'http://escapepod.org/2008/10/17/ep180-navy-brat/'
p752
aS'http://escapepod.org/2008/10/11/ep179-arties-arent-stupid/'
p753
aS'http://escapepod.org/2008/10/05/ep178-unlikely/'
p754
aS'http://escapepod.org/2008/09/27/ep177-usurpers/'
p755
aS'http://escapepod.org/2008/09/20/ep176-how-the-world-became-quiet-a-post-human-creation-myth/'
p756
aS'http://escapepod.org/2008/09/11/ep175-reparations/'
p757
aS'http://escapepod.org/2008/09/06/ep174-private-detective-molly/'
p758
aS'http://escapepod.org/2008/08/29/ep173-robots-dont-cry/'
p759
aS'http://escapepod.org/2008/08/28/jeffrey-deregos-surgery-and-financial-assistance/'
p760
aS'http://escapepod.org/2008/08/22/ep172-union-dues-tabula-rasa/'
p761
aS'http://escapepod.org/2008/08/22/ep-bonus-playing-for-keeps-by-mur-lafferty/'
p762
aS'http://escapepod.org/2008/08/21/meetup-at-dragoncon/'
p763
aS'http://escapepod.org/2008/08/15/ep171-fennemans-mouth/'
p764
aS'http://escapepod.org/2008/08/08/ep170-pervert/'
p765
aS'http://escapepod.org/2008/08/08/late-notice-and-bonus-file/'
p766
aS'http://escapepod.org/2008/08/01/ep169-how-i-mounted-goldie-saved-my-partner-lori-and-sniffed-out-the-peoples-justice/'
p767
aS'http://escapepod.org/2008/07/29/ep-review-wall-e/'
p768
aS'http://escapepod.org/2008/07/25/ep168-family-values/'
p769
aS'http://escapepod.org/2008/07/18/ep167-love-and-death-in-the-time-of-monsters/'
p770
aS'http://escapepod.org/2008/07/11/ep166-the-something-dreaming-game/'
p771
aS'http://escapepod.org/2008/07/04/ep165-those-eyes/'
p772
aS'http://escapepod.org/2008/06/27/ep164-the-right-kind-of-town/'
p773
aS'http://escapepod.org/2008/06/20/ep163-revolution-time/'
p774
aS'http://escapepod.org/2008/06/12/ep162-god-juice/'
p775
aS'http://escapepod.org/2008/06/06/ep161-alien-promises/'
p776
aS'http://escapepod.org/2008/05/29/ep160-kalakkaks-cousins/'
p777
aS'http://escapepod.org/2008/05/22/ep159-elites/'
p778
aS'http://escapepod.org/2008/05/20/ep-bonus-jc-hutchins-obsidian-poster/'
p779
aS'http://escapepod.org/2008/05/15/ep158-whos-afraid-of-wolf-359/'
p780
aS'http://escapepod.org/2008/05/08/ep157-a-small-room-in-koboldtown/'
p781
aS'http://escapepod.org/2008/05/01/ep156-distant-replay/'
p782
aS'http://escapepod.org/2008/04/24/ep155-tideline/'
p783
aS'http://escapepod.org/2008/04/18/ep154-union-dues-freedom-with-a-small-f/'
p784
aS'http://escapepod.org/2008/04/10/ep153-schwartz-between-the-galaxies/'
p785
aS'http://escapepod.org/2008/04/04/ep152-the-big-guy/'
p786
aS'http://escapepod.org/2008/04/02/ep-bonus-podcastle-001-come-lady-death/'
p787
aS'http://escapepod.org/2008/03/30/ep-review-classics-dr-strangelove/'
p788
aS'http://escapepod.org/2008/03/28/ep151-behind-the-rules/'
p789
aS'http://escapepod.org/2008/03/21/ep150-this-my-body/'
p790
aS'http://escapepod.org/2008/03/14/ep149-union-dues-all-that-we-leave-behind/'
p791
aS'http://escapepod.org/2008/03/11/ep-metacast-3/'
p792
aS'http://escapepod.org/2008/03/06/ep148-homecoming-at-the-borderlands-cafe/'
p793
aS'http://escapepod.org/2008/02/28/ep147-pressure/'
p794
aS'http://escapepod.org/2008/02/21/ep146-edward-bear-and-the-very-long-walk/'
p795
aS'http://escapepod.org/2008/02/14/ep145-instead-of-a-loving-heart/'
p796
aS'http://escapepod.org/2008/02/08/ep144-friction/'
p797
aS'http://escapepod.org/2008/02/01/ep143-flaming-marshmallow-and-other-deaths/'
p798
aS'http://escapepod.org/2008/01/25/ep142-artifice-and-intelligence/'
p799
aS'http://escapepod.org/2008/01/18/ep141-the-color-of-a-brontosaurus/'
p800
aS'http://escapepod.org/2008/01/11/ep140-astromonkeys/'
p801
aS'http://escapepod.org/2008/01/04/ep139-acephalous-dreams/'
p802
aS'http://escapepod.org/2007/12/25/ep138-in-the-late-december/'
p803
aS'http://escapepod.org/2007/12/21/ep137-citytalkers/'
p804
aS'http://escapepod.org/2007/12/14/ep136-bright-red-star/'
p805
aS'http://escapepod.org/2007/12/06/ep135-stu/'
p806
aS'http://escapepod.org/2007/12/01/ep-review-beowulf-grendel-and-beowulf/'
p807
aS'http://escapepod.org/2007/11/29/ep134-me-and-my-shadow/'
p808
aS'http://escapepod.org/2007/11/23/ep-london-meetup/'
p809
aS'http://escapepod.org/2007/11/22/ep133-other-peoples-money/'
p810
aS'http://escapepod.org/2007/11/15/ep132-sparks-in-a-cold-war/'
p811
aS'http://escapepod.org/2007/11/08/ep131-hesperia-and-glory/'
p812
aS'http://escapepod.org/2007/11/01/ep130-what-we-learned-from-this-mornings-newspaper/'
p813
aS'http://escapepod.org/2007/10/25/ep129-immortal-sin/'
p814
aS'http://escapepod.org/2007/10/18/ep128-union-dues-send-in-the-clowns/'
p815
aS'http://escapepod.org/2007/10/11/ep127-results/'
p816
aS'http://escapepod.org/2007/10/04/ep126-the-sweet-sad-love-song-of-fred-and-wilma/'
p817
aS'http://escapepod.org/2007/09/27/ep125-end-game/'
p818
aS'http://escapepod.org/2007/09/26/meetup-near-la/'
p819
aS'http://escapepod.org/2007/09/20/ep124-save-me-plz/'
p820
aS'http://escapepod.org/2007/09/13/ep123-niels-bohr-and-the-sleeping-dane/'
p821
aS'http://escapepod.org/2007/09/06/ep122-transcendence-express/'
p822
aS'http://escapepod.org/2007/08/31/ep-at-dragoncon-2007/'
p823
aS'http://escapepod.org/2007/08/30/ep121-the-snow-womans-daughter/'
p824
aS'http://escapepod.org/2007/08/23/ep120-the-sundial-brigade/'
p825
aS'http://escapepod.org/2007/08/16/ep119-aliens-want-our-women/'
p826
aS'http://escapepod.org/2007/08/09/ep118-the-veteran/'
p827
aS'http://escapepod.org/2007/08/09/ep-bonus-ecru-the-butcher-of-balis/'
p828
aS'http://escapepod.org/2007/08/03/ep-review-sunshine/'
p829
aS'http://escapepod.org/2007/08/02/ep117-reggie-vs-kaiju-storm-chimera-wolf/'
p830
aS'http://escapepod.org/2007/07/26/ep116-ej-es/'
p831
aS'http://escapepod.org/2007/07/19/ep115-conversations-with-and-about-my-electric-toothbrush/'
p832
aS'http://escapepod.org/2007/07/12/ep114-cloud-dragon-skies/'
p833
aS'http://escapepod.org/2007/07/05/ep113-ishmael-in-love/'
p834
aS'http://escapepod.org/2007/06/28/ep112-the-giving-plague/'
p835
aS'http://escapepod.org/2007/06/21/ep111-mayfly/'
p836
aS'http://escapepod.org/2007/06/14/ep110-frankie-the-spook/'
p837
aS'http://escapepod.org/2007/06/07/ep109-squonk-the-apprentice/'
p838
aS'http://escapepod.org/2007/05/31/ep108-kin/'
p839
aS'http://escapepod.org/2007/05/24/ep107-eight-episodes/'
p840
aS'http://escapepod.org/2007/05/19/ep-review-spiderman-3/'
p841
aS'http://escapepod.org/2007/05/17/ep106-the-house-beyond-your-sky/'
p842
aS'http://escapepod.org/2007/05/10/ep105-impossible-dreams/'
p843
aS'http://escapepod.org/2007/05/03/ep104-lust-for-learning/'
p844
aS'http://escapepod.org/2007/04/26/ep103-the-watching-people/'
p845
aS'http://escapepod.org/2007/04/19/ep102-the-angle-of-my-dreams/'
p846
aS'http://escapepod.org/2007/04/12/ep101-the-43-antarean-dynasties/'
p847
aS'http://escapepod.org/2007/04/05/ep100-nightfall/'
p848
aS'http://escapepod.org/2007/04/03/ep-review-echelon/'
p849
aS'http://escapepod.org/2007/03/29/ep099-start-the-clock/'
p850
aS'http://escapepod.org/2007/03/22/ep098-just-do-it/'
p851
aS'http://escapepod.org/2007/03/19/ep-bonus-ancestor-by-scott-sigler/'
p852
aS'http://escapepod.org/2007/03/17/ep-review-300/'
p853
aS'http://escapepod.org/2007/03/15/ep97-cinderella-suicide/'
p854
aS'http://escapepod.org/2007/03/08/ep096-job-qualifications/'
p855
aS'http://escapepod.org/2007/03/01/ep095-blink-dont-blink/'
p856
aS'http://escapepod.org/2007/02/23/interviews-with-steve/'
p857
aS'http://escapepod.org/2007/02/22/196/'
p858
aS'http://escapepod.org/2007/02/15/ep093-now-n-now-n/'
p859
aS'http://escapepod.org/2007/02/08/ep092-the-boy-who-yelled-dragon/'
p860
aS'http://escapepod.org/2007/02/01/ep091-the-acid-test/'
p861
aS'http://escapepod.org/2007/01/25/ep090-how-lonesome-a-life/'
p862
aS'http://escapepod.org/2007/01/25/ep-review-pans-labyrinth/'
p863
aS'http://escapepod.org/2007/01/18/ep089-bean-there/'
p864
aS'http://escapepod.org/2007/01/16/ep-flash-nightshift-in-the-automart/'
p865
aS'http://escapepod.org/2007/01/14/ep-review-children-of-men/'
p866
aS'http://escapepod.org/2007/01/11/ep088-blood-of-virgins/'
p867
aS'http://escapepod.org/2007/01/09/ep-flash-printcrime/'
p868
aS'http://escapepod.org/2007/01/06/300-word-flash-contest/'
p869
aS'http://escapepod.org/2007/01/04/ep087-authorwerx/'
p870
aS'http://escapepod.org/2007/01/01/ep-review-eragon/'
p871
aS'http://escapepod.org/2006/12/28/ep086-when-we-went-to-see-the-end-of-the-world/'
p872
aS'http://escapepod.org/2006/12/21/ep085-merry-christmas-from-the-heartbreakers/'
p873
aS'http://escapepod.org/2006/12/14/ep084-smooth-talking/'
p874
aS'http://escapepod.org/2006/12/07/ep083-ulla/'
p875
aS'http://escapepod.org/2006/11/30/ep082-travels-with-my-cats/'
p876
aS'http://escapepod.org/2006/11/27/ep-review-the-fountain/'
p877
aS'http://escapepod.org/2006/11/23/ep081-margin-of-error/'
p878
aS'http://escapepod.org/2006/11/17/poddisccom-is-live/'
p879
aS'http://escapepod.org/2006/11/16/ep080-union-dues-cleanup-in-aisle-five/'
p880
aS'http://escapepod.org/2006/11/09/ep079-mountain-man/'
p881
aS'http://escapepod.org/2006/11/06/ep-review-the-prestige/'
p882
aS'http://escapepod.org/2006/11/02/ep078-the-shoulders-of-giants/'
p883
aS'http://escapepod.org/2006/10/31/ep-flash-act-of-devil/'
p884
aS'http://escapepod.org/2006/10/29/ep-review-renaissance/'
p885
aS'http://escapepod.org/2006/10/26/ep077-a-single-shadow/'
p886
aS'http://escapepod.org/2006/10/19/ep076-the-dinner-game/'
p887
aS'http://escapepod.org/2006/10/12/ep075-nano-comes-to-clifford-falls/'
p888
aS'http://escapepod.org/2006/10/05/ep074-paradox-greenblatt-attorneys-at-law/'
p889
aS'http://escapepod.org/2006/09/28/ep073-barnaby-in-exile/'
p890
aS'http://escapepod.org/2006/09/21/ep072-joe-steele/'
p891
aS'http://escapepod.org/2006/09/14/ep071-the-capo-of-darkness/'
p892
aS'http://escapepod.org/2006/09/07/ep070-squonk/'
p893
aS'http://escapepod.org/2006/08/31/ep069-her/'
p894
aS'http://escapepod.org/2006/08/30/ep-interview-worldcon-survey/'
p895
aS'http://escapepod.org/2006/08/24/ep068-depth-of-field/'
p896
aS'http://escapepod.org/2006/08/21/ep-review-full-metal-yakuza-robocop-and-other-frankensteins/'
p897
aS'http://escapepod.org/2006/08/18/ep-review-snakes-on-a-plane/'
p898
aS'http://escapepod.org/2006/08/17/ep067-life-in-stone/'
p899
aS'http://escapepod.org/2006/08/14/ep-flash-the-uncanny-valley/'
p900
aS'http://escapepod.org/2006/08/10/ep066-the-kings-tail/'
p901
aS'http://escapepod.org/2006/08/07/ep-review-a-scanner-darkly/'
p902
aS'http://escapepod.org/2006/08/03/ep065-a-green-thumb/'
p903
aS'http://escapepod.org/2006/07/27/ep064-head-of-state/'
p904
aS'http://escapepod.org/2006/07/22/ep-review-superman-returns/'
p905
aS'http://escapepod.org/2006/07/20/ep063-observations-from-the-city-of-angels/'
p906
aS'http://escapepod.org/2006/07/13/ep062-union-dues-the-baby-and-the-bathwater/'
p907
aS'http://escapepod.org/2006/07/06/ep061-i-look-forward-to-remembering-you/'
p908
aS'http://escapepod.org/2006/07/03/ep-flash-stuck-in-an-elevator/'
p909
aS'http://escapepod.org/2006/06/29/ep060-creature-for-hire/'
p910
aS'http://escapepod.org/2006/06/26/ep-review-x-men-3/'
p911
aS'http://escapepod.org/2006/06/24/ep-flash-paul-bunyan-and-the-photocopier/'
p912
aS'http://escapepod.org/2006/06/23/ep059-anyone-can-whistle-2/'
p913
aS'http://escapepod.org/2006/06/15/ep-058-shadowboxer/'
p914
aS'http://escapepod.org/2006/06/08/ep057-chuckles-mulrooney-attorney-for-the-damned/'
p915
aS'http://escapepod.org/2006/06/02/welcome/'
p916
aS'http://escapepod.org/2006/06/01/ep056-the-clockwork-atom-bomb/'
p917
aS'http://escapepod.org/2006/05/31/return-from-balticon-40-and-news/'
p918
aS'http://escapepod.org/2006/05/25/pern-movie/'
p919
aS'http://escapepod.org/2006/05/25/ep055-down-memory-lane/'
p920
aS'http://escapepod.org/2006/05/23/writers-beware/'
p921
aS'http://escapepod.org/2006/05/19/tiptree-award-controversy/'
p922
aS'http://escapepod.org/2006/05/18/ep054-tktktk/'
p923
aS'http://escapepod.org/2006/05/11/ep053-seventy-five-years/'
p924
aS'http://escapepod.org/2006/05/11/ep-eta-pm/'
p925
aS'http://escapepod.org/2006/05/09/the-dragon-page-expands-the-reach-of-podcasting/'
p926
aS'http://escapepod.org/2006/05/09/ep-metacast-2/'
p927
aS'http://escapepod.org/2006/05/08/free-hugo-nominated-works/'
p928
aS'http://escapepod.org/2006/05/07/congratulations-to-the-nebula-winners/'
p929
aS'http://escapepod.org/2006/05/06/jeff-vandermeers-exhaustive-reading-list/'
p930
aS'http://escapepod.org/2006/05/04/ep052-single-white-farmhouse/'
p931
aS'http://escapepod.org/2006/04/27/ep051-is-you-isis-you-aint/'
p932
aS'http://escapepod.org/2006/04/20/ep050-the-malcontent/'
p933
aS'http://escapepod.org/2006/04/13/ep049-union-dues-off-white-lies/'
p934
aS'http://escapepod.org/2006/04/06/ep048-soul-food/'
p935
aS'http://escapepod.org/2006/04/04/ep-review-ultraviolet/'
p936
aS'http://escapepod.org/2006/03/30/ep047-poet-for-hire/'
p937
aS'http://escapepod.org/2006/03/23/ep046-natural-order/'
p938
aS'http://escapepod.org/2006/03/20/ep-review-night-watch/'
p939
aS'http://escapepod.org/2006/03/16/ep045-are-you-ready-for-the-end-of-the-world/'
p940
aS'http://escapepod.org/2006/03/16/ep045-are-you-ready-for-the-end-of-the-world-2/'
p941
aS'http://escapepod.org/2006/03/09/ep044-show-and-tell/'
p942
aS'http://escapepod.org/2006/03/02/ep043-little-worker/'
p943
aS'http://escapepod.org/2006/02/23/ep042-practical-villainy/'
p944
aS'http://escapepod.org/2006/02/21/ep-flash-fools-seldom-differ/'
p945
aS'http://escapepod.org/2006/02/16/ep041-ambient-sleaze/'
p946
aS'http://escapepod.org/2006/02/14/ep-flash-one-million-years-bfe/'
p947
aS'http://escapepod.org/2006/02/09/ep040-even-vadso-thaws/'
p948
aS'http://escapepod.org/2006/02/06/ep-flash-the-team-mate-reference-problem-in-final-stage-demon-confrontation/'
p949
aS'http://escapepod.org/2006/02/02/ep039-my-friend-is-a-lesbian-zombie/'
p950
aS'http://escapepod.org/2006/01/25/ep038-lalchimista/'
p951
aS'http://escapepod.org/2006/01/24/ep-flash-hibernation/'
p952
aS'http://escapepod.org/2006/01/21/kudos-on-robots/'
p953
aS'http://escapepod.org/2006/01/19/ep037-craphound/'
p954
aS'http://escapepod.org/2006/01/12/ep036-connie-maybe/'
p955
aS'http://escapepod.org/2006/01/09/podcastercon2006-wrap-up/'
p956
aS'http://escapepod.org/2006/01/05/ep035-hero/'
p957
aS'http://escapepod.org/2006/01/03/vote-for-your-favorite/'
p958
aS'http://escapepod.org/2005/12/31/ep-review-aeon-flux/'
p959
aS'http://escapepod.org/2005/12/29/ep034-free-will-baby/'
p960
aS'http://escapepod.org/2005/12/24/ep-flash-night-off/'
p961
aS'http://escapepod.org/2005/12/22/ep033-santa-in-my-pocket/'
p962
aS'http://escapepod.org/2005/12/15/ep032-alien-animal-encounters/'
p963
aS'http://escapepod.org/2005/12/08/listener-survey/'
p964
aS'http://escapepod.org/2005/12/08/ep031-robots-and-falling-hearts/'
p965
aS'http://escapepod.org/2005/12/01/ep030-aliens-love-oranges/'
p966
aS'http://escapepod.org/2005/11/24/ep029-crystal-balls/'
p967
aS'http://escapepod.org/2005/11/17/ep-collection-1/'
p968
aS'http://escapepod.org/2005/11/17/ep028-corporate-network/'
p969
aS'http://escapepod.org/2005/11/15/ep-poem-making-monsters/'
p970
aS'http://escapepod.org/2005/11/10/ep027-iron-bars-and-the-glass-jaw/'
p971
aS'http://escapepod.org/2005/11/08/ep-interview-greg-van-eekhout/'
p972
aS'http://escapepod.org/2005/11/03/ep026-the-ludes/'
p973
aS'http://escapepod.org/2005/10/31/ep-flash-mount-dragon/'
p974
aS'http://escapepod.org/2005/10/27/ep025-the-great-old-pumpkin/'
p975
aS'http://escapepod.org/2005/10/20/ep024-the-death-trap-of-dr-nefario/'
p976
aS'http://escapepod.org/2005/10/17/ep-flash-wetting-the-bed/'
p977
aS'http://escapepod.org/2005/10/13/recognition/'
p978
aS'http://escapepod.org/2005/10/13/ep023-the-dream-factory/'
p979
aS'http://escapepod.org/2005/10/06/ep022-don-ysidro/'
p980
aS'http://escapepod.org/2005/10/05/ep-flash-troy-trooper/'
p981
aS'http://escapepod.org/2005/09/29/ep021-platypus-girl/'
p982
aS'http://escapepod.org/2005/09/27/mirrormask-giveaway/'
p983
aS'http://escapepod.org/2005/09/27/ep-metacast-1/'
p984
aS'http://escapepod.org/2005/09/26/forums/'
p985
aS'http://escapepod.org/2005/09/22/ep020-the-burning-bush/'
p986
aS'http://escapepod.org/2005/09/15/ep019-implications/'
p987
aS'http://escapepod.org/2005/09/12/the-writing-show-interview/'
p988
aS'http://escapepod.org/2005/09/11/ep-flash-the-god-of-the-goblins/'
p989
aS'http://escapepod.org/2005/09/08/podcast411-interview/'
p990
aS'http://escapepod.org/2005/09/08/ep018-some-girlfriends-can/'
p991
aS'http://escapepod.org/2005/09/01/ep017-the-life-and-times-of-penguin/'
p992
aS'http://escapepod.org/2005/08/31/dragoncon/'
p993
aS'http://escapepod.org/2005/08/30/ep-flash-pennywhiste/'
p994
aS'http://escapepod.org/2005/08/25/ep016-seamstress/'
p995
aS'http://escapepod.org/2005/08/24/on-the-radio/'
p996
aS'http://escapepod.org/2005/08/18/ep015-hellnotes/'
p997
aS'http://escapepod.org/2005/08/16/review-katamari-damacy/'
p998
aS'http://escapepod.org/2005/08/11/ep014-tis-the-season/'
p999
aS'http://escapepod.org/2005/08/09/administrivia/'
p1000
aS'http://escapepod.org/2005/08/04/ep013-the-once-and-future-dentist/'
p1001
aS'http://escapepod.org/2005/08/01/ep-flash-friday-night-gods/'
p1002
aS'http://escapepod.org/2005/07/31/ep-review-the-island/'
p1003
aS'http://escapepod.org/2005/07/28/ep012-clean-up-your-room/'
p1004
aS'http://escapepod.org/2005/07/24/ep-flash-virus/'
p1005
aS'http://escapepod.org/2005/07/21/ep011-herd-mentality/'
p1006
aS'http://escapepod.org/2005/07/18/ep-flash-paradox/'
p1007
aS'http://escapepod.org/2005/07/14/ep010-the-girlfriends-of-dorian-gray/'
p1008
aS'http://escapepod.org/2005/07/11/ep-flash-slicing/'
p1009
aS'http://escapepod.org/2005/07/10/discussion-forums/'
p1010
aS'http://escapepod.org/2005/07/07/ep009-jack/'
p1011
aS'http://escapepod.org/2005/07/04/ep-review-lego-moonbase-project/'
p1012
aS'http://escapepod.org/2005/06/30/ep008-lachrymose-and-the-golden-egg/'
p1013
aS'http://escapepod.org/2005/06/28/ep-flash-ubiquitous/'
p1014
aS'http://escapepod.org/2005/06/23/ep007-the-trouble-with-death-traps/'
p1015
aS'http://escapepod.org/2005/06/20/ep-flash-airedale/'
p1016
aS'http://escapepod.org/2005/06/20/and-the-winner-is/'
p1017
aS'http://escapepod.org/2005/06/20/27/'
p1018
aS'http://escapepod.org/2005/06/16/ep006-jenny-nettles/'
p1019
aS'http://escapepod.org/2005/06/14/ep-flash-strange-girlfriend/'
p1020
aS'http://escapepod.org/2005/06/13/win-serenity-tickets/'
p1021
aS'http://escapepod.org/2005/06/10/ep-promo/'
p1022
aS'http://escapepod.org/2005/06/09/ep005-snow-day/'
p1023
aS'http://escapepod.org/2005/06/06/ep-flash-oasis/'
p1024
aS'http://escapepod.org/2005/06/02/book-review-line/'
p1025
aS'http://escapepod.org/2005/06/02/ep004-in-his-footsteps/'
p1026
aS'http://escapepod.org/2005/05/30/logo/'
p1027
aS'http://escapepod.org/2005/05/27/geek-fu-action-grip/'
p1028
aS'http://escapepod.org/2005/05/26/ep003-three-wish-habit/'
p1029
aS'http://escapepod.org/2005/05/26/the-serenity-spoiler-review/'
p1030
aS'http://escapepod.org/2005/05/19/ep002-feng-burger/'
p1031
aS'http://escapepod.org/2005/05/16/the-seanachai/'
p1032
aS'http://escapepod.org/2005/05/16/schedule/'
p1033
aS'http://escapepod.org/2005/05/12/ep001-imperial-by-jonathon-sullivan/'
p1034
a.